; Function Attrs: mustprogress nofree norecurse nosync nounwind willreturn memory(read, inaccessiblemem: none) uwtable
define hidden noundef zeroext i1 @_ZNK10arith_util10is_boundedEP4expr(ptr noundef nonnull readnone align 8 captures(none) dereferenceable(16) %0, ptr noundef readonly captures(none) %1) local_unnamed_addr #14 align 2 {
  br label %3

3:                                                ; preds = %_ZNK10arith_util10is_numeralEPK4expr.exit, %2
  %.0 = phi ptr [ %1, %2 ], [ %25, %_ZNK10arith_util10is_numeralEPK4expr.exit ]
  %4 = getelementptr inbounds nuw i8, ptr %.0, i64 4
  %5 = load i32, ptr %4, align 4
  %6 = and i32 %5, 65535
  %7 = icmp eq i32 %6, 0
  br i1 %7, label %8, label %_ZNK10arith_util10is_numeralEPK4expr.exit12

8:                                                ; preds = %3
  %9 = getelementptr inbounds nuw i8, ptr %.0, i64 16
  %10 = load ptr, ptr %9, align 8, !tbaa !193
  %11 = getelementptr inbounds nuw i8, ptr %10, i64 24
  %12 = load ptr, ptr %11, align 8, !tbaa !212
  %.not.i.i.i.i.i = icmp eq ptr %12, null
  br i1 %.not.i.i.i.i.i, label %_ZNK10arith_util10is_numeralEPK4expr.exit12, label %_ZNK17arith_recognizers7is_idivEPK4expr.exit.i

_ZNK17arith_recognizers7is_idivEPK4expr.exit.i:   ; preds = %8
  %13 = load i32, ptr %12, align 8, !tbaa !54
  %14 = icmp eq i32 %13, 5
  %15 = getelementptr inbounds nuw i8, ptr %12, i64 4
  %16 = load i32, ptr %15, align 4
  %17 = icmp eq i32 %16, 11
  %18 = select i1 %14, i1 %17, i1 false
  br i1 %18, label %19, label %_ZNK17arith_recognizers6is_modEPK4expr.exit.i

19:                                               ; preds = %_ZNK17arith_recognizers7is_idivEPK4expr.exit.i
  %20 = getelementptr inbounds nuw i8, ptr %.0, i64 24
  %21 = load i32, ptr %20, align 8, !tbaa !216
  %22 = icmp eq i32 %21, 2
  br i1 %22, label %23, label %_ZNK17arith_recognizers6is_modEPK4expr.exit.i

23:                                               ; preds = %19
  %24 = getelementptr inbounds nuw i8, ptr %.0, i64 32
  %25 = load ptr, ptr %24, align 8, !tbaa !197
  %26 = getelementptr inbounds nuw i8, ptr %.0, i64 40
  %27 = load ptr, ptr %26, align 8, !tbaa !197
  %28 = getelementptr inbounds nuw i8, ptr %27, i64 4
  %29 = load i32, ptr %28, align 4
  %30 = and i32 %29, 65535
  %31 = icmp eq i32 %30, 0
  br i1 %31, label %32, label %_ZNK17arith_recognizers6is_modEPK4expr.exit.i

32:                                               ; preds = %23
  %33 = getelementptr inbounds nuw i8, ptr %27, i64 16
  %34 = load ptr, ptr %33, align 8, !tbaa !193
  %35 = getelementptr inbounds nuw i8, ptr %34, i64 24
  %36 = load ptr, ptr %35, align 8, !tbaa !212
  %.not.i.i.i.i.i6 = icmp eq ptr %36, null
  br i1 %.not.i.i.i.i.i6, label %_ZNK17arith_recognizers6is_modEPK4expr.exit.i, label %_ZNK10arith_util10is_numeralEPK4expr.exit

_ZNK10arith_util10is_numeralEPK4expr.exit:        ; preds = %32
  %37 = load i32, ptr %36, align 8, !tbaa !54
  %38 = icmp eq i32 %37, 5
  %39 = getelementptr inbounds nuw i8, ptr %36, i64 4
  %40 = load i32, ptr %39, align 4
  %41 = icmp eq i32 %40, 0
  %42 = select i1 %38, i1 %41, i1 false
  br i1 %42, label %3, label %_ZNK17arith_recognizers6is_modEPK4expr.exit.i, !llvm.loop !240

_ZNK17arith_recognizers6is_modEPK4expr.exit.i:    ; preds = %_ZNK17arith_recognizers7is_idivEPK4expr.exit.i, %19, %32, %23, %_ZNK10arith_util10is_numeralEPK4expr.exit
  %43 = load i32, ptr %12, align 8, !tbaa !54
  %44 = icmp eq i32 %43, 5
  %45 = getelementptr inbounds nuw i8, ptr %12, i64 4
  %46 = load i32, ptr %45, align 4
  %47 = icmp eq i32 %46, 16
  %48 = select i1 %44, i1 %47, i1 false
  br i1 %48, label %49, label %71

49:                                               ; preds = %_ZNK17arith_recognizers6is_modEPK4expr.exit.i
  %50 = getelementptr inbounds nuw i8, ptr %.0, i64 24
  %51 = load i32, ptr %50, align 8, !tbaa !216
  %52 = icmp eq i32 %51, 2
  br i1 %52, label %53, label %71

53:                                               ; preds = %49
  %54 = getelementptr inbounds nuw i8, ptr %.0, i64 40
  %55 = load ptr, ptr %54, align 8, !tbaa !197
  %56 = getelementptr inbounds nuw i8, ptr %55, i64 4
  %57 = load i32, ptr %56, align 4
  %58 = and i32 %57, 65535
  %59 = icmp eq i32 %58, 0
  br i1 %59, label %60, label %71

60:                                               ; preds = %53
  %61 = getelementptr inbounds nuw i8, ptr %55, i64 16
  %62 = load ptr, ptr %61, align 8, !tbaa !193
  %63 = getelementptr inbounds nuw i8, ptr %62, i64 24
  %64 = load ptr, ptr %63, align 8, !tbaa !212
  %.not.i.i.i.i.i9 = icmp eq ptr %64, null
  br i1 %.not.i.i.i.i.i9, label %71, label %_ZNK10arith_util10is_numeralEPK4expr.exit10

_ZNK10arith_util10is_numeralEPK4expr.exit10:      ; preds = %60
  %65 = load i32, ptr %64, align 8, !tbaa !54
  %66 = icmp eq i32 %65, 5
  %67 = getelementptr inbounds nuw i8, ptr %64, i64 4
  %68 = load i32, ptr %67, align 4
  %69 = icmp eq i32 %68, 0
  %70 = select i1 %66, i1 %69, i1 false
  br i1 %70, label %_ZNK10arith_util10is_numeralEPK4expr.exit12, label %71

71:                                               ; preds = %_ZNK17arith_recognizers6is_modEPK4expr.exit.i, %49, %60, %53, %_ZNK10arith_util10is_numeralEPK4expr.exit10
  %72 = load i32, ptr %12, align 8, !tbaa !54
  %73 = icmp eq i32 %72, 5
  %74 = getelementptr inbounds nuw i8, ptr %12, i64 4
  %75 = load i32, ptr %74, align 4
  %76 = icmp eq i32 %75, 0
  %77 = select i1 %73, i1 %76, i1 false
  br label %_ZNK10arith_util10is_numeralEPK4expr.exit12

_ZNK10arith_util10is_numeralEPK4expr.exit12:      ; preds = %3, %8, %71, %_ZNK10arith_util10is_numeralEPK4expr.exit10
  %.05 = phi i1 [ true, %_ZNK10arith_util10is_numeralEPK4expr.exit10 ], [ %77, %71 ], [ false, %8 ], [ false, %3 ]
  ret i1 %.05
}